; Function Attrs: nofree nounwind uwtable
define noalias noundef ptr @Wlc_ReduceMarkedInitVec(ptr noundef readonly captures(none) %0, ptr noundef readonly captures(none) %1) local_unnamed_addr #16 {
  %3 = tail call noalias dereferenceable_or_null(16) ptr @malloc(i64 noundef 16) #26
  %4 = getelementptr inbounds nuw i8, ptr %1, i64 4
  %5 = load i32, ptr %4, align 4
  store i32 %5, ptr %3, align 8
  %.not.i = icmp eq i32 %5, 0
  br i1 %.not.i, label %Vec_IntDup.exit, label %6

6:                                                ; preds = %2
  %7 = sext i32 %5 to i64
  %8 = shl nsw i64 %7, 2
  %9 = tail call noalias ptr @malloc(i64 noundef %8) #26
  br label %Vec_IntDup.exit

Vec_IntDup.exit:                                  ; preds = %2, %6
  %.pre-phi12.i = phi i64 [ %8, %6 ], [ 0, %2 ]
  %10 = phi ptr [ %9, %6 ], [ null, %2 ]
  %11 = getelementptr inbounds nuw i8, ptr %3, i64 8
  store ptr %10, ptr %11, align 8
  %12 = getelementptr inbounds nuw i8, ptr %1, i64 8
  %13 = load ptr, ptr %12, align 8
  tail call void @llvm.memcpy.p0.p0.i64(ptr align 4 %10, ptr align 4 %13, i64 %.pre-phi12.i, i1 false)
  %14 = getelementptr i8, ptr %0, i64 52
  %.val17 = load i32, ptr %14, align 4
  %15 = icmp sgt i32 %.val17, 0
  br i1 %15, label %.lr.ph, label %.critedge

.lr.ph:                                           ; preds = %Vec_IntDup.exit
  %16 = getelementptr i8, ptr %0, i64 56
  %.val19 = load ptr, ptr %16, align 8
  %17 = getelementptr i8, ptr %0, i64 640
  %.val20 = load ptr, ptr %17, align 8
  %18 = getelementptr i8, ptr %0, i64 20
  %wide.trip.count = zext nneg i32 %.val17 to i64
  br label %19

19:                                               ; preds = %.lr.ph, %36
  %indvars.iv = phi i64 [ 0, %.lr.ph ], [ %indvars.iv.next, %36 ]
  %.024 = phi i32 [ 0, %.lr.ph ], [ %.1, %36 ]
  %20 = getelementptr inbounds nuw i32, ptr %.val19, i64 %indvars.iv
  %21 = load i32, ptr %20, align 4
  %22 = sext i32 %21 to i64
  %23 = getelementptr inbounds %struct.Wlc_Obj_t_, ptr %.val20, i64 %22
  %.val22 = load i16, ptr %23, align 8
  %24 = and i16 %.val22, 63
  %25 = icmp eq i16 %24, 1
  %26 = and i16 %.val22, 128
  %.not16 = icmp eq i16 %26, 0
  %or.cond = or i1 %25, %.not16
  br i1 %or.cond, label %36, label %27

27:                                               ; preds = %19
  %28 = add nsw i32 %.024, 1
  %.val = load i32, ptr %18, align 4
  %29 = trunc nuw nsw i64 %indvars.iv to i32
  %30 = sub nsw i32 %29, %.val
  %31 = sext i32 %30 to i64
  %32 = getelementptr inbounds i32, ptr %13, i64 %31
  %33 = load i32, ptr %32, align 4
  %34 = sext i32 %.024 to i64
  %35 = getelementptr inbounds i32, ptr %10, i64 %34
  store i32 %33, ptr %35, align 4
  br label %36

36:                                               ; preds = %19, %27
  %.1 = phi i32 [ %.024, %19 ], [ %28, %27 ]
  %indvars.iv.next = add nuw nsw i64 %indvars.iv, 1
  %exitcond.not = icmp eq i64 %indvars.iv.next, %wide.trip.count
  br i1 %exitcond.not, label %.critedge, label %19, !llvm.loop !48

.critedge:                                        ; preds = %36, %Vec_IntDup.exit
  %.0.lcssa = phi i32 [ 0, %Vec_IntDup.exit ], [ %.1, %36 ]
  %37 = getelementptr inbounds nuw i8, ptr %3, i64 4
  store i32 %.0.lcssa, ptr %37, align 4
  ret ptr %3
}